; Function Attrs: nounwind uwtable
define ptr @l_System_Uri_escapeUri(ptr noundef %0) local_unnamed_addr #0 {
lean_dec.exit:
  %1 = getelementptr i8, ptr %0, i64 8
  %.val = load i64, ptr %1, align 8, !tbaa !15
  %2 = shl i64 %.val, 1
  %3 = add i64 %2, -1
  %4 = inttoptr i64 %3 to ptr
  %5 = load ptr, ptr @l_System_Uri_UriEscape_uriEscapeAsciiChar___closed__1, align 8, !tbaa !9
  %6 = tail call ptr @l_String_foldlAux___at_System_Uri_escapeUri___spec__1(ptr noundef %0, ptr noundef nonnull %4, ptr noundef nonnull inttoptr (i64 1 to ptr), ptr noundef %5)
  ret ptr %6
}